; Function Attrs: nofree nounwind memory(write, inaccessiblemem: readwrite) uwtable
define void @PMIx_Query_qualifiers_create(ptr noundef writeonly captures(none) initializes((16, 24)) %0, i64 noundef %1) local_unnamed_addr #21 {
  %3 = getelementptr inbounds nuw i8, ptr %0, i64 16
  store i64 %1, ptr %3, align 8, !tbaa !132
  %4 = icmp eq i64 %1, 0
  br i1 %4, label %pmix_bfrops_base_tma_query_qualifiers_create.exit, label %5

5:                                                ; preds = %2
  %6 = mul i64 %1, 552
  %7 = tail call noalias noundef ptr @malloc(i64 noundef %6) #45
  %8 = icmp eq ptr %7, null
  br i1 %8, label %pmix_bfrops_base_tma_query_qualifiers_create.exit, label %.preheader.i.i, !prof !77

.preheader.i.i:                                   ; preds = %5, %.preheader.i.i
  %.01.i.i = phi i64 [ %11, %.preheader.i.i ], [ 0, %5 ]
  %9 = getelementptr inbounds nuw %struct.pmix_info, ptr %7, i64 %.01.i.i
  %10 = getelementptr inbounds nuw i8, ptr %9, i64 520
  tail call void @llvm.memset.p0.i64(ptr noundef nonnull align 8 dereferenceable(32) %10, i8 0, i64 32, i1 false)
  tail call void @llvm.memset.p0.i64(ptr noundef nonnull align 1 dereferenceable(516) %9, i8 0, i64 516, i1 false)
  %11 = add nuw i64 %.01.i.i, 1
  %exitcond.not.i.i = icmp eq i64 %11, %1
  br i1 %exitcond.not.i.i, label %pmix_bfrops_base_tma_query_qualifiers_create.exit, label %.preheader.i.i, !llvm.loop !82

pmix_bfrops_base_tma_query_qualifiers_create.exit: ; preds = %.preheader.i.i, %2, %5
  %.011.i.i = phi ptr [ null, %2 ], [ null, %5 ], [ %7, %.preheader.i.i ]
  %12 = getelementptr inbounds nuw i8, ptr %0, i64 8
  store ptr %.011.i.i, ptr %12, align 8, !tbaa !131
  ret void
}